target datalayout = "e-m:e-p270:32:32-p271:32:32-p272:64:64-i64:64-i128:128-f80:128-n8:16:32:64-S128"
target triple = "x86_64-unknown-linux-gnu"

%"class.grpc_core::RefCountedPtr.2" = type { ptr }
%struct.grpc_security_context_extension = type { ptr, ptr }
%struct.grpc_server_security_context = type { %"class.grpc_core::RefCountedPtr.2", %struct.grpc_security_context_extension }
%"class.grpc_core::Arena" = type { %"struct.std::atomic.6", %"struct.std::atomic.6", i64, %"struct.std::atomic.8", %"struct.std::atomic.10", ptr }
%"struct.std::atomic.6" = type { %"struct.std::__atomic_base.7" }
%"struct.std::__atomic_base.7" = type { i64 }
%"struct.std::atomic.8" = type { %"struct.std::__atomic_base.9" }
%"struct.std::__atomic_base.9" = type { ptr }
%"struct.std::atomic.10" = type { %"struct.std::__atomic_base.11" }
%"struct.std::__atomic_base.11" = type { ptr }

; Function Attrs: mustprogress nounwind uwtable
define linkonce_odr void @_ZN31grpc_security_context_extensionC2Ev(ptr noundef nonnull align 8 dereferenceable(16) %this) unnamed_addr #5 comdat align 2 {
entry:
  %this.addr = alloca ptr, align 8
  store ptr %this, ptr %this.addr, align 8
  %this1 = load ptr, ptr %this.addr, align 8
  %instance = getelementptr inbounds %struct.grpc_security_context_extension, ptr %this1, i32 0, i32 0
  store ptr null, ptr %instance, align 8
  %destroy = getelementptr inbounds %struct.grpc_security_context_extension, ptr %this1, i32 0, i32 1
  store ptr null, ptr %destroy, align 8
  ret void
}

; Function Attrs: mustprogress nounwind uwtable
define linkonce_odr void @_ZN9grpc_core13RefCountedPtrI17grpc_auth_contextEC2Ev(ptr noundef nonnull align 8 dereferenceable(8) %this) unnamed_addr #5 comdat align 2 {
entry:
  %this.addr = alloca ptr, align 8
  store ptr %this, ptr %this.addr, align 8
  %this1 = load ptr, ptr %this.addr, align 8
  %value_ = getelementptr inbounds %"class.grpc_core::RefCountedPtr.2", ptr %this1, i32 0, i32 0
  store ptr null, ptr %value_, align 8
  ret void
}

; Function Attrs: mustprogress uwtable
define linkonce_odr void @_ZN28grpc_server_security_contextC2Ev(ptr noundef nonnull align 8 dereferenceable(24) %this) unnamed_addr #4 comdat align 2 {
entry:
  %this.addr = alloca ptr, align 8
  store ptr %this, ptr %this.addr, align 8
  %this1 = load ptr, ptr %this.addr, align 8
  %auth_context = getelementptr inbounds %struct.grpc_server_security_context, ptr %this1, i32 0, i32 0
  call void @_ZN9grpc_core13RefCountedPtrI17grpc_auth_contextEC2Ev(ptr noundef nonnull align 8 dereferenceable(8) %auth_context)
  %extension = getelementptr inbounds %struct.grpc_server_security_context, ptr %this1, i32 0, i32 1
  call void @_ZN31grpc_security_context_extensionC2Ev(ptr noundef nonnull align 8 dereferenceable(16) %extension) #3
  ret void
}

; Function Attrs: mustprogress uwtable
define linkonce_odr void @_ZN9grpc_core9ConstructI28grpc_server_security_contextJEEEvPT_DpOT0_(ptr noundef %p) #4 comdat {
entry:
  %p.addr = alloca ptr, align 8
  store ptr %p, ptr %p.addr, align 8
  %0 = load ptr, ptr %p.addr, align 8
  call void @llvm.memset.p0.i64(ptr align 8 %0, i8 0, i64 24, i1 false)
  call void @_ZN28grpc_server_security_contextC2Ev(ptr noundef nonnull align 8 dereferenceable(24) %0)
  ret void
}

; Function Attrs: mustprogress uwtable
define linkonce_odr noundef ptr @_ZN9grpc_core5Arena5AllocEm(ptr noundef nonnull align 8 dereferenceable(48) %this, i64 noundef %size) #4 comdat align 2 {
entry:
  %this.addr.i = alloca ptr, align 8
  %__i.addr.i = alloca i64, align 8
  %__m.addr.i = alloca i32, align 4
  %.atomictmp.i = alloca i64, align 8
  %atomic-temp.i = alloca i64, align 8
  %retval = alloca ptr, align 8
  %this.addr = alloca ptr, align 8
  %size.addr = alloca i64, align 8
  %begin = alloca i64, align 8
  store ptr %this, ptr %this.addr, align 8
  store i64 %size, ptr %size.addr, align 8
  %this1 = load ptr, ptr %this.addr, align 8
  %0 = load i64, ptr %size.addr, align 8
  %add = add i64 %0, 16
  %sub = sub i64 %add, 1
  %and = and i64 %sub, 4294967280
  store i64 %and, ptr %size.addr, align 8
  %total_used_ = getelementptr inbounds %"class.grpc_core::Arena", ptr %this1, i32 0, i32 0
  %1 = load i64, ptr %size.addr, align 8
  store ptr %total_used_, ptr %this.addr.i, align 8
  store i64 %1, ptr %__i.addr.i, align 8
  store i32 0, ptr %__m.addr.i, align 4
  %this1.i = load ptr, ptr %this.addr.i, align 8
  %2 = load i32, ptr %__m.addr.i, align 4
  %3 = load i64, ptr %__i.addr.i, align 8
  store i64 %3, ptr %.atomictmp.i, align 8
  switch i32 %2, label %monotonic.i [
    i32 1, label %acquire.i
    i32 2, label %acquire.i
    i32 3, label %release.i
    i32 4, label %acqrel.i
    i32 5, label %seqcst.i
  ]

monotonic.i:                                      ; preds = %entry
  %4 = load i64, ptr %.atomictmp.i, align 8
  %5 = atomicrmw add ptr %this1.i, i64 %4 monotonic, align 8
  store i64 %5, ptr %atomic-temp.i, align 8
  br label %_ZNSt13__atomic_baseImE9fetch_addEmSt12memory_order.exit

acquire.i:                                        ; preds = %entry, %entry
  %6 = load i64, ptr %.atomictmp.i, align 8
  %7 = atomicrmw add ptr %this1.i, i64 %6 acquire, align 8
  store i64 %7, ptr %atomic-temp.i, align 8
  br label %_ZNSt13__atomic_baseImE9fetch_addEmSt12memory_order.exit

release.i:                                        ; preds = %entry
  %8 = load i64, ptr %.atomictmp.i, align 8
  %9 = atomicrmw add ptr %this1.i, i64 %8 release, align 8
  store i64 %9, ptr %atomic-temp.i, align 8
  br label %_ZNSt13__atomic_baseImE9fetch_addEmSt12memory_order.exit

acqrel.i:                                         ; preds = %entry
  %10 = load i64, ptr %.atomictmp.i, align 8
  %11 = atomicrmw add ptr %this1.i, i64 %10 acq_rel, align 8
  store i64 %11, ptr %atomic-temp.i, align 8
  br label %_ZNSt13__atomic_baseImE9fetch_addEmSt12memory_order.exit

seqcst.i:                                         ; preds = %entry
  %12 = load i64, ptr %.atomictmp.i, align 8
  %13 = atomicrmw add ptr %this1.i, i64 %12 seq_cst, align 8
  store i64 %13, ptr %atomic-temp.i, align 8
  br label %_ZNSt13__atomic_baseImE9fetch_addEmSt12memory_order.exit

_ZNSt13__atomic_baseImE9fetch_addEmSt12memory_order.exit: ; preds = %seqcst.i, %acqrel.i, %release.i, %acquire.i, %monotonic.i
  %14 = load i64, ptr %atomic-temp.i, align 8
  store i64 %14, ptr %begin, align 8
  %15 = load i64, ptr %begin, align 8
  %16 = load i64, ptr %size.addr, align 8
  %add2 = add i64 %15, %16
  %initial_zone_size_ = getelementptr inbounds %"class.grpc_core::Arena", ptr %this1, i32 0, i32 2
  %17 = load i64, ptr %initial_zone_size_, align 8
  %cmp = icmp ule i64 %add2, %17
  br i1 %cmp, label %if.then, label %if.else

if.then:                                          ; preds = %_ZNSt13__atomic_baseImE9fetch_addEmSt12memory_order.exit
  %add.ptr = getelementptr inbounds i8, ptr %this1, i64 48
  %18 = load i64, ptr %begin, align 8
  %add.ptr3 = getelementptr inbounds i8, ptr %add.ptr, i64 %18
  store ptr %add.ptr3, ptr %retval, align 8
  br label %return

if.else:                                          ; preds = %_ZNSt13__atomic_baseImE9fetch_addEmSt12memory_order.exit
  %19 = load i64, ptr %size.addr, align 8
  %call4 = call noundef ptr @_ZN9grpc_core5Arena9AllocZoneEm(ptr noundef nonnull align 8 dereferenceable(48) %this1, i64 noundef %19)
  store ptr %call4, ptr %retval, align 8
  br label %return

return:                                           ; preds = %if.else, %if.then
  %20 = load ptr, ptr %retval, align 8
  ret ptr %20
}

; Function Attrs: mustprogress uwtable
define linkonce_odr noundef ptr @_ZN9grpc_core5Arena3NewI28grpc_server_security_contextJEEEPT_DpOT0_(ptr noundef nonnull align 8 dereferenceable(48) %this) #4 comdat align 2 {
entry:
  %this.addr = alloca ptr, align 8
  %t = alloca ptr, align 8
  store ptr %this, ptr %this.addr, align 8
  %this1 = load ptr, ptr %this.addr, align 8
  %call = call noundef ptr @_ZN9grpc_core5Arena5AllocEm(ptr noundef nonnull align 8 dereferenceable(48) %this1, i64 noundef 24)
  store ptr %call, ptr %t, align 8
  %0 = load ptr, ptr %t, align 8
  call void @_ZN9grpc_core9ConstructI28grpc_server_security_contextJEEEvPT_DpOT0_(ptr noundef %0)
  %1 = load ptr, ptr %t, align 8
  ret ptr %1
}

; Function Attrs: mustprogress uwtable
define noundef ptr @_Z35grpc_server_security_context_createPN9grpc_core5ArenaE(ptr noundef %arena) #4 {
entry:
  %arena.addr = alloca ptr, align 8
  store ptr %arena, ptr %arena.addr, align 8
  %0 = load ptr, ptr %arena.addr, align 8
  %call = call noundef ptr @_ZN9grpc_core5Arena3NewI28grpc_server_security_contextJEEEPT_DpOT0_(ptr noundef nonnull align 8 dereferenceable(48) %0)
  ret ptr %call
}