; Function Attrs: mustprogress uwtable
define noundef ptr @_Z35grpc_server_security_context_createPN9grpc_core5ArenaE(ptr noundef %arena) local_unnamed_addr #4 {
entry:
  %0 = atomicrmw add ptr %arena, i64 32 monotonic, align 8
  %add2.i.i = add i64 %0, 32
  %initial_zone_size_.i.i = getelementptr inbounds i8, ptr %arena, i64 16
  %1 = load i64, ptr %initial_zone_size_.i.i, align 8
  %cmp.not.i.i = icmp ugt i64 %add2.i.i, %1
  br i1 %cmp.not.i.i, label %if.else.i.i, label %if.then.i.i

if.then.i.i:                                      ; preds = %entry
  %add.ptr.i.i = getelementptr inbounds i8, ptr %arena, i64 48
  %add.ptr3.i.i = getelementptr inbounds i8, ptr %add.ptr.i.i, i64 %0
  br label %_ZN9grpc_core5Arena3NewI28grpc_server_security_contextJEEEPT_DpOT0_.exit

if.else.i.i:                                      ; preds = %entry
  %call4.i.i = tail call noundef ptr @_ZN9grpc_core5Arena9AllocZoneEm(ptr noundef nonnull align 8 dereferenceable(48) %arena, i64 noundef 32)
  br label %_ZN9grpc_core5Arena3NewI28grpc_server_security_contextJEEEPT_DpOT0_.exit

_ZN9grpc_core5Arena3NewI28grpc_server_security_contextJEEEPT_DpOT0_.exit: ; preds = %if.then.i.i, %if.else.i.i
  %retval.0.i.i = phi ptr [ %add.ptr3.i.i, %if.then.i.i ], [ %call4.i.i, %if.else.i.i ]
  tail call void @llvm.memset.p0.i64(ptr noundef nonnull align 8 dereferenceable(24) %retval.0.i.i, i8 0, i64 24, i1 false)
  ret ptr %retval.0.i.i
}